target datalayout = "e-m:e-p270:32:32-p271:32:32-p272:64:64-i64:64-i128:128-f80:128-n8:16:32:64-S128"
target triple = "x86_64-pc-linux-gnu"

%struct.mbedtls_md_context_t = type { ptr, ptr, ptr }

; Function Attrs: nounwind uwtable
define internal i32 @tls_prf_generic(i32 noundef %0, ptr noundef %1, i64 noundef %2, ptr noundef %3, ptr noundef %4, i64 noundef %5, ptr noundef %6, i64 noundef %7) #0 {
  %9 = alloca i32, align 4
  %10 = alloca i32, align 4
  %11 = alloca ptr, align 8
  %12 = alloca i64, align 8
  %13 = alloca ptr, align 8
  %14 = alloca ptr, align 8
  %15 = alloca i64, align 8
  %16 = alloca ptr, align 8
  %17 = alloca i64, align 8
  %18 = alloca i64, align 8
  %19 = alloca i64, align 8
  %20 = alloca i64, align 8
  %21 = alloca i64, align 8
  %22 = alloca i64, align 8
  %23 = alloca ptr, align 8
  %24 = alloca i64, align 8
  %25 = alloca [64 x i8], align 16
  %26 = alloca ptr, align 8
  %27 = alloca %struct.mbedtls_md_context_t, align 8
  %28 = alloca i32, align 4
  %29 = alloca i32, align 4
  store i32 %0, ptr %10, align 4, !tbaa !10
  store ptr %1, ptr %11, align 8, !tbaa !29
  store i64 %2, ptr %12, align 8, !tbaa !8
  store ptr %3, ptr %13, align 8, !tbaa !29
  store ptr %4, ptr %14, align 8, !tbaa !29
  store i64 %5, ptr %15, align 8, !tbaa !8
  store ptr %6, ptr %16, align 8, !tbaa !29
  store i64 %7, ptr %17, align 8, !tbaa !8
  call void @llvm.lifetime.start.p0(i64 8, ptr %18) #11
  call void @llvm.lifetime.start.p0(i64 8, ptr %19) #11
  call void @llvm.lifetime.start.p0(i64 8, ptr %20) #11
  call void @llvm.lifetime.start.p0(i64 8, ptr %21) #11
  call void @llvm.lifetime.start.p0(i64 8, ptr %22) #11
  call void @llvm.lifetime.start.p0(i64 8, ptr %23) #11
  call void @llvm.lifetime.start.p0(i64 8, ptr %24) #11
  store i64 0, ptr %24, align 8, !tbaa !8
  call void @llvm.lifetime.start.p0(i64 64, ptr %25) #11
  call void @llvm.lifetime.start.p0(i64 8, ptr %26) #11
  call void @llvm.lifetime.start.p0(i64 24, ptr %27) #11
  call void @llvm.lifetime.start.p0(i64 4, ptr %28) #11
  store i32 -110, ptr %28, align 4, !tbaa !10
  call void @mbedtls_md_init(ptr noundef %27)
  %30 = load i32, ptr %10, align 4, !tbaa !10
  %31 = call ptr @mbedtls_md_info_from_type(i32 noundef %30)
  store ptr %31, ptr %26, align 8, !tbaa !295
  %32 = icmp eq ptr %31, null
  br i1 %32, label %33, label %34

33:                                               ; preds = %8
  store i32 -27648, ptr %9, align 4
  store i32 1, ptr %29, align 4
  br label %182

34:                                               ; preds = %8
  %35 = load ptr, ptr %26, align 8, !tbaa !295
  %36 = call zeroext i8 @mbedtls_md_get_size(ptr noundef %35)
  %37 = zext i8 %36 to i64
  store i64 %37, ptr %22, align 8, !tbaa !8
  %38 = load i64, ptr %22, align 8, !tbaa !8
  %39 = load ptr, ptr %13, align 8, !tbaa !29
  %40 = call i64 @strlen(ptr noundef %39) #13
  %41 = add i64 %38, %40
  %42 = load i64, ptr %15, align 8, !tbaa !8
  %43 = add i64 %41, %42
  store i64 %43, ptr %24, align 8, !tbaa !8
  %44 = load i64, ptr %24, align 8, !tbaa !8
  %45 = call noalias ptr @calloc(i64 noundef 1, i64 noundef %44) #12
  store ptr %45, ptr %23, align 8, !tbaa !29
  %46 = load ptr, ptr %23, align 8, !tbaa !29
  %47 = icmp eq ptr %46, null
  br i1 %47, label %48, label %49

48:                                               ; preds = %34
  store i32 -32512, ptr %28, align 4, !tbaa !10
  br label %172

49:                                               ; preds = %34
  %50 = load ptr, ptr %13, align 8, !tbaa !29
  %51 = call i64 @strlen(ptr noundef %50) #13
  store i64 %51, ptr %18, align 8, !tbaa !8
  %52 = load ptr, ptr %23, align 8, !tbaa !29
  %53 = load i64, ptr %22, align 8, !tbaa !8
  %54 = getelementptr inbounds nuw i8, ptr %52, i64 %53
  %55 = load ptr, ptr %13, align 8, !tbaa !29
  %56 = load i64, ptr %18, align 8, !tbaa !8
  call void @llvm.memcpy.p0.p0.i64(ptr align 1 %54, ptr align 1 %55, i64 %56, i1 false)
  %57 = load ptr, ptr %23, align 8, !tbaa !29
  %58 = load i64, ptr %22, align 8, !tbaa !8
  %59 = getelementptr inbounds nuw i8, ptr %57, i64 %58
  %60 = load i64, ptr %18, align 8, !tbaa !8
  %61 = getelementptr inbounds nuw i8, ptr %59, i64 %60
  %62 = load ptr, ptr %14, align 8, !tbaa !29
  %63 = load i64, ptr %15, align 8, !tbaa !8
  call void @llvm.memcpy.p0.p0.i64(ptr align 1 %61, ptr align 1 %62, i64 %63, i1 false)
  %64 = load i64, ptr %15, align 8, !tbaa !8
  %65 = load i64, ptr %18, align 8, !tbaa !8
  %66 = add i64 %65, %64
  store i64 %66, ptr %18, align 8, !tbaa !8
  %67 = load ptr, ptr %26, align 8, !tbaa !295
  %68 = call i32 @mbedtls_md_setup(ptr noundef %27, ptr noundef %67, i32 noundef 1)
  store i32 %68, ptr %28, align 4, !tbaa !10
  %69 = icmp ne i32 %68, 0
  br i1 %69, label %70, label %71

70:                                               ; preds = %49
  br label %172

71:                                               ; preds = %49
  %72 = load ptr, ptr %11, align 8, !tbaa !29
  %73 = load i64, ptr %12, align 8, !tbaa !8
  %74 = call i32 @mbedtls_md_hmac_starts(ptr noundef %27, ptr noundef %72, i64 noundef %73)
  store i32 %74, ptr %28, align 4, !tbaa !10
  %75 = load i32, ptr %28, align 4, !tbaa !10
  %76 = icmp ne i32 %75, 0
  br i1 %76, label %77, label %78

77:                                               ; preds = %71
  br label %172

78:                                               ; preds = %71
  %79 = load ptr, ptr %23, align 8, !tbaa !29
  %80 = load i64, ptr %22, align 8, !tbaa !8
  %81 = getelementptr inbounds nuw i8, ptr %79, i64 %80
  %82 = load i64, ptr %18, align 8, !tbaa !8
  %83 = call i32 @mbedtls_md_hmac_update(ptr noundef %27, ptr noundef %81, i64 noundef %82)
  store i32 %83, ptr %28, align 4, !tbaa !10
  %84 = load i32, ptr %28, align 4, !tbaa !10
  %85 = icmp ne i32 %84, 0
  br i1 %85, label %86, label %87

86:                                               ; preds = %78
  br label %172

87:                                               ; preds = %78
  %88 = load ptr, ptr %23, align 8, !tbaa !29
  %89 = call i32 @mbedtls_md_hmac_finish(ptr noundef %27, ptr noundef %88)
  store i32 %89, ptr %28, align 4, !tbaa !10
  %90 = load i32, ptr %28, align 4, !tbaa !10
  %91 = icmp ne i32 %90, 0
  br i1 %91, label %92, label %93

92:                                               ; preds = %87
  br label %172

93:                                               ; preds = %87
  store i64 0, ptr %19, align 8, !tbaa !8
  br label %94

94:                                               ; preds = %167, %93
  %95 = load i64, ptr %19, align 8, !tbaa !8
  %96 = load i64, ptr %17, align 8, !tbaa !8
  %97 = icmp ult i64 %95, %96
  br i1 %97, label %98, label %171

98:                                               ; preds = %94
  %99 = call i32 @mbedtls_md_hmac_reset(ptr noundef %27)
  store i32 %99, ptr %28, align 4, !tbaa !10
  %100 = load i32, ptr %28, align 4, !tbaa !10
  %101 = icmp ne i32 %100, 0
  br i1 %101, label %102, label %103

102:                                              ; preds = %98
  br label %172

103:                                              ; preds = %98
  %104 = load ptr, ptr %23, align 8, !tbaa !29
  %105 = load i64, ptr %22, align 8, !tbaa !8
  %106 = load i64, ptr %18, align 8, !tbaa !8
  %107 = add i64 %105, %106
  %108 = call i32 @mbedtls_md_hmac_update(ptr noundef %27, ptr noundef %104, i64 noundef %107)
  store i32 %108, ptr %28, align 4, !tbaa !10
  %109 = load i32, ptr %28, align 4, !tbaa !10
  %110 = icmp ne i32 %109, 0
  br i1 %110, label %111, label %112

111:                                              ; preds = %103
  br label %172

112:                                              ; preds = %103
  %113 = getelementptr inbounds [64 x i8], ptr %25, i64 0, i64 0
  %114 = call i32 @mbedtls_md_hmac_finish(ptr noundef %27, ptr noundef %113)
  store i32 %114, ptr %28, align 4, !tbaa !10
  %115 = load i32, ptr %28, align 4, !tbaa !10
  %116 = icmp ne i32 %115, 0
  br i1 %116, label %117, label %118

117:                                              ; preds = %112
  br label %172

118:                                              ; preds = %112
  %119 = call i32 @mbedtls_md_hmac_reset(ptr noundef %27)
  store i32 %119, ptr %28, align 4, !tbaa !10
  %120 = load i32, ptr %28, align 4, !tbaa !10
  %121 = icmp ne i32 %120, 0
  br i1 %121, label %122, label %123

122:                                              ; preds = %118
  br label %172

123:                                              ; preds = %118
  %124 = load ptr, ptr %23, align 8, !tbaa !29
  %125 = load i64, ptr %22, align 8, !tbaa !8
  %126 = call i32 @mbedtls_md_hmac_update(ptr noundef %27, ptr noundef %124, i64 noundef %125)
  store i32 %126, ptr %28, align 4, !tbaa !10
  %127 = load i32, ptr %28, align 4, !tbaa !10
  %128 = icmp ne i32 %127, 0
  br i1 %128, label %129, label %130

129:                                              ; preds = %123
  br label %172

130:                                              ; preds = %123
  %131 = load ptr, ptr %23, align 8, !tbaa !29
  %132 = call i32 @mbedtls_md_hmac_finish(ptr noundef %27, ptr noundef %131)
  store i32 %132, ptr %28, align 4, !tbaa !10
  %133 = load i32, ptr %28, align 4, !tbaa !10
  %134 = icmp ne i32 %133, 0
  br i1 %134, label %135, label %136

135:                                              ; preds = %130
  br label %172

136:                                              ; preds = %130
  %137 = load i64, ptr %19, align 8, !tbaa !8
  %138 = load i64, ptr %22, align 8, !tbaa !8
  %139 = add i64 %137, %138
  %140 = load i64, ptr %17, align 8, !tbaa !8
  %141 = icmp ugt i64 %139, %140
  br i1 %141, label %142, label %146

142:                                              ; preds = %136
  %143 = load i64, ptr %17, align 8, !tbaa !8
  %144 = load i64, ptr %22, align 8, !tbaa !8
  %145 = urem i64 %143, %144
  br label %148

146:                                              ; preds = %136
  %147 = load i64, ptr %22, align 8, !tbaa !8
  br label %148

148:                                              ; preds = %146, %142
  %149 = phi i64 [ %145, %142 ], [ %147, %146 ]
  store i64 %149, ptr %21, align 8, !tbaa !8
  store i64 0, ptr %20, align 8, !tbaa !8
  br label %150

150:                                              ; preds = %163, %148
  %151 = load i64, ptr %20, align 8, !tbaa !8
  %152 = load i64, ptr %21, align 8, !tbaa !8
  %153 = icmp ult i64 %151, %152
  br i1 %153, label %154, label %166

154:                                              ; preds = %150
  %155 = load i64, ptr %20, align 8, !tbaa !8
  %156 = getelementptr inbounds nuw [64 x i8], ptr %25, i64 0, i64 %155
  %157 = load i8, ptr %156, align 1, !tbaa !87
  %158 = load ptr, ptr %16, align 8, !tbaa !29
  %159 = load i64, ptr %19, align 8, !tbaa !8
  %160 = load i64, ptr %20, align 8, !tbaa !8
  %161 = add i64 %159, %160
  %162 = getelementptr inbounds nuw i8, ptr %158, i64 %161
  store i8 %157, ptr %162, align 1, !tbaa !87
  br label %163

163:                                              ; preds = %154
  %164 = load i64, ptr %20, align 8, !tbaa !8
  %165 = add i64 %164, 1
  store i64 %165, ptr %20, align 8, !tbaa !8
  br label %150, !llvm.loop !329

166:                                              ; preds = %150
  br label %167

167:                                              ; preds = %166
  %168 = load i64, ptr %22, align 8, !tbaa !8
  %169 = load i64, ptr %19, align 8, !tbaa !8
  %170 = add i64 %169, %168
  store i64 %170, ptr %19, align 8, !tbaa !8
  br label %94, !llvm.loop !330

171:                                              ; preds = %94
  br label %172

172:                                              ; preds = %171, %135, %129, %122, %117, %111, %102, %92, %86, %77, %70, %48
  call void @mbedtls_md_free(ptr noundef %27)
  %173 = load ptr, ptr %23, align 8, !tbaa !29
  %174 = icmp ne ptr %173, null
  br i1 %174, label %175, label %178

175:                                              ; preds = %172
  %176 = load ptr, ptr %23, align 8, !tbaa !29
  %177 = load i64, ptr %24, align 8, !tbaa !8
  call void @mbedtls_platform_zeroize(ptr noundef %176, i64 noundef %177)
  br label %178

178:                                              ; preds = %175, %172
  %179 = getelementptr inbounds [64 x i8], ptr %25, i64 0, i64 0
  call void @mbedtls_platform_zeroize(ptr noundef %179, i64 noundef 64)
  %180 = load ptr, ptr %23, align 8, !tbaa !29
  call void @free(ptr noundef %180) #11
  %181 = load i32, ptr %28, align 4, !tbaa !10
  store i32 %181, ptr %9, align 4
  store i32 1, ptr %29, align 4
  br label %182

182:                                              ; preds = %178, %33
  call void @llvm.lifetime.end.p0(i64 4, ptr %28) #11
  call void @llvm.lifetime.end.p0(i64 24, ptr %27) #11
  call void @llvm.lifetime.end.p0(i64 8, ptr %26) #11
  call void @llvm.lifetime.end.p0(i64 64, ptr %25) #11
  call void @llvm.lifetime.end.p0(i64 8, ptr %24) #11
  call void @llvm.lifetime.end.p0(i64 8, ptr %23) #11
  call void @llvm.lifetime.end.p0(i64 8, ptr %22) #11
  call void @llvm.lifetime.end.p0(i64 8, ptr %21) #11
  call void @llvm.lifetime.end.p0(i64 8, ptr %20) #11
  call void @llvm.lifetime.end.p0(i64 8, ptr %19) #11
  call void @llvm.lifetime.end.p0(i64 8, ptr %18) #11
  %183 = load i32, ptr %9, align 4
  ret i32 %183
}