; Function Attrs: nounwind uwtable
define internal fastcc i32 @tls_prf_generic(i32 noundef range(i32 9, 11) %0, ptr noundef %1, i64 noundef %2, ptr noundef readonly captures(none) %3, ptr noundef readonly captures(none) %4, i64 noundef %5, ptr noundef writeonly captures(none) %6, i64 noundef %7) unnamed_addr #1 {
  %9 = alloca [64 x i8], align 16
  %10 = alloca %struct.mbedtls_md_context_t, align 8
  call void @llvm.lifetime.start.p0(i64 64, ptr nonnull %9) #26
  call void @llvm.lifetime.start.p0(i64 24, ptr nonnull %10) #26
  call void @mbedtls_md_init(ptr noundef nonnull %10) #26
  %11 = call ptr @mbedtls_md_info_from_type(i32 noundef %0) #26
  %12 = icmp eq ptr %11, null
  br i1 %12, label %51, label %13

13:                                               ; preds = %8
  %14 = call zeroext i8 @mbedtls_md_get_size(ptr noundef nonnull %11) #26
  %15 = zext i8 %14 to i64
  %16 = call i64 @strlen(ptr noundef nonnull dereferenceable(1) %3) #28
  %17 = add i64 %16, %5
  %18 = add i64 %17, %15
  %19 = call noalias ptr @calloc(i64 noundef 1, i64 noundef %18) #27
  %20 = icmp eq ptr %19, null
  br i1 %20, label %.thread95, label %21

.thread95:                                        ; preds = %13
  call void @mbedtls_md_free(ptr noundef nonnull %10) #26
  br label %50

21:                                               ; preds = %13
  %22 = getelementptr inbounds nuw i8, ptr %19, i64 %15
  call void @llvm.memcpy.p0.p0.i64(ptr nonnull align 1 %22, ptr nonnull align 1 %3, i64 %16, i1 false)
  %23 = getelementptr inbounds nuw i8, ptr %22, i64 %16
  call void @llvm.memcpy.p0.p0.i64(ptr nonnull align 1 %23, ptr align 1 %4, i64 %5, i1 false)
  %24 = call i32 @mbedtls_md_setup(ptr noundef nonnull %10, ptr noundef nonnull %11, i32 noundef 1) #26
  %.not = icmp eq i32 %24, 0
  br i1 %.not, label %25, label %.thread

25:                                               ; preds = %21
  %26 = call i32 @mbedtls_md_hmac_starts(ptr noundef nonnull %10, ptr noundef %1, i64 noundef %2) #26
  %.not82 = icmp eq i32 %26, 0
  br i1 %.not82, label %27, label %.thread

27:                                               ; preds = %25
  %28 = call i32 @mbedtls_md_hmac_update(ptr noundef nonnull %10, ptr noundef nonnull %22, i64 noundef %17) #26
  %.not83 = icmp eq i32 %28, 0
  br i1 %.not83, label %29, label %.thread

29:                                               ; preds = %27
  %30 = call i32 @mbedtls_md_hmac_finish(ptr noundef nonnull %10, ptr noundef nonnull %19) #26
  %.not84 = icmp eq i32 %30, 0
  br i1 %.not84, label %.preheader, label %.thread

.preheader:                                       ; preds = %29
  %.not102 = icmp eq i64 %7, 0
  br i1 %.not102, label %.thread, label %.lr.ph99

.loopexit:                                        ; preds = %.lr.ph, %48
  %31 = icmp ult i64 %44, %7
  br i1 %31, label %.lr.ph99, label %.thread, !llvm.loop !296

.lr.ph99:                                         ; preds = %.preheader, %.loopexit
  %.06498 = phi i64 [ %44, %.loopexit ], [ 0, %.preheader ]
  %scevgep = getelementptr i8, ptr %6, i64 %.06498
  %32 = call i32 @mbedtls_md_hmac_reset(ptr noundef nonnull %10) #26
  %.not85 = icmp eq i32 %32, 0
  br i1 %.not85, label %33, label %.thread

33:                                               ; preds = %.lr.ph99
  %34 = call i32 @mbedtls_md_hmac_update(ptr noundef nonnull %10, ptr noundef nonnull %19, i64 noundef %18) #26
  %.not86 = icmp eq i32 %34, 0
  br i1 %.not86, label %35, label %.thread

35:                                               ; preds = %33
  %36 = call i32 @mbedtls_md_hmac_finish(ptr noundef nonnull %10, ptr noundef nonnull %9) #26
  %.not87 = icmp eq i32 %36, 0
  br i1 %.not87, label %37, label %.thread

37:                                               ; preds = %35
  %38 = call i32 @mbedtls_md_hmac_reset(ptr noundef nonnull %10) #26
  %.not88 = icmp eq i32 %38, 0
  br i1 %.not88, label %39, label %.thread

39:                                               ; preds = %37
  %40 = call i32 @mbedtls_md_hmac_update(ptr noundef nonnull %10, ptr noundef nonnull %19, i64 noundef %15) #26
  %.not89 = icmp eq i32 %40, 0
  br i1 %.not89, label %41, label %.thread

41:                                               ; preds = %39
  %42 = call i32 @mbedtls_md_hmac_finish(ptr noundef nonnull %10, ptr noundef nonnull %19) #26
  %.not90 = icmp eq i32 %42, 0
  br i1 %.not90, label %43, label %.thread

43:                                               ; preds = %41
  %44 = add i64 %.06498, %15
  %45 = icmp ugt i64 %44, %7
  br i1 %45, label %46, label %48

46:                                               ; preds = %43
  %47 = urem i64 %7, %15
  br label %48

48:                                               ; preds = %43, %46
  %49 = phi i64 [ %47, %46 ], [ %15, %43 ]
  %.not103 = icmp eq i64 %49, 0
  br i1 %.not103, label %.loopexit, label %.lr.ph

.lr.ph:                                           ; preds = %48
  call void @llvm.memcpy.p0.p0.i64(ptr align 1 %scevgep, ptr nonnull align 16 %9, i64 %49, i1 false), !tbaa !80
  br label %.loopexit

.thread:                                          ; preds = %.loopexit, %.lr.ph99, %33, %35, %37, %39, %41, %.preheader, %21, %25, %27, %29
  %.093 = phi i32 [ %30, %29 ], [ %28, %27 ], [ %26, %25 ], [ %24, %21 ], [ 0, %.preheader ], [ %34, %33 ], [ %36, %35 ], [ %38, %37 ], [ %40, %39 ], [ %42, %41 ], [ 0, %.loopexit ], [ %32, %.lr.ph99 ]
  call void @mbedtls_md_free(ptr noundef nonnull %10) #26
  call void @mbedtls_platform_zeroize(ptr noundef nonnull %19, i64 noundef %18) #26
  br label %50

50:                                               ; preds = %.thread95, %.thread
  %.094 = phi i32 [ %.093, %.thread ], [ -32512, %.thread95 ]
  call void @mbedtls_platform_zeroize(ptr noundef nonnull %9, i64 noundef 64) #26
  call void @free(ptr noundef %19) #26
  br label %51

51:                                               ; preds = %8, %50
  %.063 = phi i32 [ %.094, %50 ], [ -27648, %8 ]
  call void @llvm.lifetime.end.p0(i64 24, ptr nonnull %10) #26
  call void @llvm.lifetime.end.p0(i64 64, ptr nonnull %9) #26
  ret i32 %.063
}